; .\Objects\dht.SRC generated from: dht.c
; COMPILER INVOKED BY:
;        C:\Keil_v5\C51\BIN\C51.EXE dht.c OPTIMIZE(8,SPEED) BROWSE DEBUG OBJECTEXTEND PRINT(.\Listings\dht.lst) TABS(2) SRC(.\Objects\dht.SRC)

$NOMOD51

NAME	DHT

P0	DATA	080H
P1	DATA	090H
P2	DATA	0A0H
P3	DATA	0B0H
MQ05	BIT	0B0H.5
T0	BIT	0B0H.4
AC	BIT	0D0H.6
T1	BIT	0B0H.5
EA	BIT	0A8H.7
LED_LCD	BIT	0B0H.7
ADC0804_RD	BIT	090H.4
ADC0804_CS	BIT	090H.3
IE	DATA	0A8H
EN	BIT	090H.0
RD	BIT	0B0H.7
ES	BIT	0A8H.4
IP	DATA	0B8H
RI	BIT	098H.0
INT0	BIT	0B0H.2
CY	BIT	0D0H.7
TI	BIT	098H.1
INT1	BIT	0B0H.3
INT_LCD	BIT	0B0H.3
ADC0804_WR	BIT	090H.5
PS	BIT	0B8H.4
SP	DATA	081H
RS	BIT	090H.2
OV	BIT	0D0H.2
RW	BIT	090H.1
WR	BIT	0B0H.6
SBUF	DATA	099H
PCON	DATA	087H
SCON	DATA	098H
ADC0804_INTR	BIT	0B0H.3
TMOD	DATA	089H
TCON	DATA	088H
IE0	BIT	088H.1
IE1	BIT	088H.3
B	DATA	0F0H
DHT11	BIT	0B0H.4
ACC	DATA	0E0H
UART_RX	BIT	0B0H.0
ET0	BIT	0A8H.1
UART_TX	BIT	0B0H.1
ET1	BIT	0A8H.3
TF0	BIT	088H.5
TF1	BIT	088H.7
RB8	BIT	098H.2
TH0	DATA	08CH
EX0	BIT	0A8H.0
IT0	BIT	088H.0
TH1	DATA	08DH
TB8	BIT	098H.3
EX1	BIT	0A8H.2
IT1	BIT	088H.2
P	BIT	0D0H.0
SM0	BIT	098H.7
TL0	DATA	08AH
SM1	BIT	098H.6
TL1	DATA	08BH
SM2	BIT	098H.5
PT0	BIT	0B8H.1
PT1	BIT	0B8H.3
RS0	BIT	0D0H.3
TR0	BIT	088H.4
RS1	BIT	0D0H.4
TR1	BIT	088H.6
PX0	BIT	0B8H.0
PX1	BIT	0B8H.2
DPH	DATA	083H
DPL	DATA	082H
REN	BIT	098H.4
RXD	BIT	0B0H.0
TXD	BIT	0B0H.1
LED_GPMY	BIT	0B0H.6
F0	BIT	0D0H.5
PSW	DATA	0D0H
?PR?Request?DHT      SEGMENT CODE 
?PR?Response?DHT     SEGMENT CODE 
?PR?Receive_data?DHT SEGMENT CODE 
?DT?Receive_data?DHT SEGMENT DATA OVERLAYABLE 
	EXTRN	CODE (timer_delay20ms)
	EXTRN	CODE (timer_delay30us)
	PUBLIC	Receive_data
	PUBLIC	Response
	PUBLIC	Request

	RSEG  ?DT?Receive_data?DHT
?Receive_data?BYTE:
          q?240:   DS   2
	ORG  2
          c?241:   DS   2
; #include <reg51.h>
; #include "dht.h"
; #include "port.h"
; #include "delay.h"
; 
; 
; void Request()   /* Microcontroller send request */

	RSEG  ?PR?Request?DHT
Request:
	USING	0
			; SOURCE LINE # 7
; {
			; SOURCE LINE # 8
;  DHT11 = 0;  /* set to low pin */
			; SOURCE LINE # 9
	CLR  	DHT11
;  timer_delay20ms(); /* wait for 20ms */
			; SOURCE LINE # 10
	LCALL	timer_delay20ms
;  DHT11 = 1;  /* set to high pin */
			; SOURCE LINE # 11
	SETB 	DHT11
; }
			; SOURCE LINE # 12
	RET  	
; END OF Request

; 
; void Response()   /* Receive response from DHT11 */

	RSEG  ?PR?Response?DHT
Response:
			; SOURCE LINE # 14
; {
			; SOURCE LINE # 15
?C0002:
;  while(DHT11==1);
			; SOURCE LINE # 16
	JB   	DHT11,?C0002
?C0004:
;  while(DHT11==0);
			; SOURCE LINE # 17
	JNB  	DHT11,?C0004
?C0006:
;  while(DHT11==1);
			; SOURCE LINE # 18
	JB   	DHT11,?C0006
; }
			; SOURCE LINE # 19
	RET  	
; END OF Response

; 
; int Receive_data()  /* Receive data */

	RSEG  ?PR?Receive_data?DHT
Receive_data:
	USING	0
			; SOURCE LINE # 21
; {
			; SOURCE LINE # 22
;  int q,c=0; 
			; SOURCE LINE # 23
	CLR  	A
	MOV  	c?241,A
	MOV  	c?241+01H,A
;  for (q=0; q<8; q++)
			; SOURCE LINE # 24
	MOV  	q?240,A
	MOV  	q?240+01H,A
?C0009:
;  {
			; SOURCE LINE # 25
?C0012:
;   while(DHT11==0);/* check received bit 0 or 1 */
			; SOURCE LINE # 26
	JNB  	DHT11,?C0012
;   timer_delay30us();
			; SOURCE LINE # 27
	LCALL	timer_delay30us
;   if(DHT11 == 1) /* If high pulse is greater than 30ms */
			; SOURCE LINE # 28
	MOV  	A,c?241+01H
	ADD  	A,ACC
	JNB  	DHT11,?C0014
;   c = (c<<1)|(0x01);/* Then its logic HIGH */
			; SOURCE LINE # 29
	MOV  	R7,A
	MOV  	A,c?241
	RLC  	A
	MOV  	c?241,A
	MOV  	A,R7
	ORL  	A,#01H
	MOV  	c?241+01H,A
	SJMP 	?C0016
?C0014:
;   else  /* otherwise its logic LOW */
;   c = (c<<1);
			; SOURCE LINE # 31
	MOV  	c?241+01H,A
	MOV  	A,c?241
	RLC  	A
	MOV  	c?241,A
?C0016:
;   while(DHT11==1);
			; SOURCE LINE # 32
	JB   	DHT11,?C0016
;  }
			; SOURCE LINE # 33
	INC  	q?240+01H
	MOV  	A,q?240+01H
	JNZ  	?C0019
	INC  	q?240
?C0019:
	CLR  	C
	SUBB 	A,#08H
	MOV  	A,q?240
	XRL  	A,#080H
	SUBB 	A,#080H
	JC   	?C0009
?C0010:
; 
;  return c;
			; SOURCE LINE # 35
	MOV  	R6,c?241
	MOV  	R7,c?241+01H
; }			; SOURCE LINE # 36
	RET  	
; END OF Receive_data

	END
